target datalayout = "e-m:e-p270:32:32-p271:32:32-p272:64:64-i64:64-i128:128-f80:128-n8:16:32:64-S128"
target triple = "x86_64-pc-linux-gnu"

%struct._zend_accel_globals = type { i8, i8, i8, i8, i8, %struct._zend_accel_directives, ptr, ptr, [32 x i8], [32 x i8], i32, i8, i32, i8, i32, i64, i64, %struct._zend_array, i64, ptr, ptr, ptr, ptr, ptr }
%struct._zend_accel_directives = type { i64, i64, double, ptr, i64, i8, i8, i8, i8, i8, i8, i8, i8, i8, i8, i8, i64, i64, ptr, ptr, i64, i64, i64, i64, i64, ptr, ptr, ptr, i8, i8, i8, i8, ptr, ptr }
%struct._zend_array = type { %struct._zend_refcounted_h, %union.anon.0, i32, %union.anon.1, i32, i32, i32, i32, i64, ptr }
%struct._zend_refcounted_h = type { i32, %union.anon }
%union.anon = type { i32 }
%union.anon.0 = type { i32 }
%union.anon.1 = type { ptr }
%struct._zend_op_array = type { i8, [3 x i8], i32, ptr, ptr, ptr, i32, i32, ptr, ptr, ptr, ptr, i32, ptr, i32, i32, i32, ptr, ptr, ptr, ptr, ptr, i32, i32, ptr, ptr, ptr, i32, i32, i32, i32, ptr, ptr, [6 x ptr] }
%struct._zend_smm_shared_globals = type { ptr, i32, i64, i64, i8, %struct._zend_shared_memory_state, ptr, ptr, i64 }
%struct._zend_shared_memory_state = type { ptr, i64 }
%struct._zend_accel_shared_globals = type { i64, i64, i64, i64, i64, i64, %struct._zend_accel_hash, i64, i64, i64, i64, i8, i8, i32, i8, i8, i8, ptr, ptr, [2 x i32], ptr, ptr, %struct._zend_string_table }
%struct._zend_accel_hash = type { ptr, ptr, i32, i32, i32 }
%struct._zend_string_table = type { i32, i32, ptr, ptr, ptr, ptr }
%struct._zend_persistent_script = type { %struct._zend_script, i64, i32, i64, i8, i8, i8, i32, i32, ptr, ptr, ptr, i64, %struct.zend_persistent_script_dynamic_members }
%struct._zend_script = type { ptr, %struct._zend_op_array, %struct._zend_array, %struct._zend_array }
%struct.zend_persistent_script_dynamic_members = type { i64, i64, i32, i64 }

@accel_shared_globals = hidden global ptr null, align 8
@smm_shared_globals = external global ptr, align 8
@accel_globals = hidden global %struct._zend_accel_globals zeroinitializer, align 8

; Function Attrs: nounwind uwtable
define hidden void @zend_accel_schedule_restart_if_necessary(i32 noundef %0) #0 {
  %2 = alloca i32, align 4
  store i32 %0, ptr %2, align 4, !tbaa !4
  %3 = load ptr, ptr @smm_shared_globals, align 8, !tbaa !8
  %4 = getelementptr inbounds nuw %struct._zend_smm_shared_globals, ptr %3, i32 0, i32 3
  %5 = load i64, ptr %4, align 8, !tbaa !11
  %6 = uitofp i64 %5 to double
  %7 = load i64, ptr getelementptr inbounds nuw (%struct._zend_accel_globals, ptr @accel_globals, i32 0, i32 5), align 8, !tbaa !18
  %8 = sitofp i64 %7 to double
  %9 = fdiv double %6, %8
  %10 = load double, ptr getelementptr inbounds nuw (%struct._zend_accel_directives, ptr getelementptr inbounds nuw (%struct._zend_accel_globals, ptr @accel_globals, i32 0, i32 5), i32 0, i32 2), align 8, !tbaa !28
  %11 = fcmp oge double %9, %10
  br i1 %11, label %12, label %14

12:                                               ; preds = %1
  %13 = load i32, ptr %2, align 4, !tbaa !4
  call void @zend_accel_schedule_restart(i32 noundef %13)
  br label %14

14:                                               ; preds = %12, %1
  ret void
}

; Function Attrs: inlinehint nounwind uwtable
define internal zeroext i1 @zend_accel_hash_is_full(ptr noundef %0) #8 {
  %2 = alloca i1, align 1
  %3 = alloca ptr, align 8
  store ptr %0, ptr %3, align 8, !tbaa !308
  %4 = load ptr, ptr %3, align 8, !tbaa !308
  %5 = getelementptr inbounds nuw %struct._zend_accel_hash, ptr %4, i32 0, i32 2
  %6 = load i32, ptr %5, align 8, !tbaa !310
  %7 = load ptr, ptr %3, align 8, !tbaa !308
  %8 = getelementptr inbounds nuw %struct._zend_accel_hash, ptr %7, i32 0, i32 3
  %9 = load i32, ptr %8, align 4, !tbaa !311
  %10 = icmp eq i32 %6, %9
  br i1 %10, label %11, label %12

11:                                               ; preds = %1
  store i1 true, ptr %2, align 1
  br label %13

12:                                               ; preds = %1
  store i1 false, ptr %2, align 1
  br label %13

13:                                               ; preds = %12, %11
  %14 = load i1, ptr %2, align 1
  ret i1 %14
}

; Function Attrs: nounwind uwtable
define internal void @zend_accel_discard_script(ptr noundef %0) #0 {
  %2 = alloca ptr, align 8
  %3 = alloca i32, align 4
  store ptr %0, ptr %2, align 8, !tbaa !136
  %4 = load ptr, ptr %2, align 8, !tbaa !136
  %5 = getelementptr inbounds nuw %struct._zend_persistent_script, ptr %4, i32 0, i32 4
  %6 = load i8, ptr %5, align 8, !tbaa !165, !range !38, !noundef !39
  %7 = trunc i8 %6 to i1
  br i1 %7, label %8, label %9

8:                                                ; preds = %1
  br label %33

9:                                                ; preds = %1
  %10 = load ptr, ptr %2, align 8, !tbaa !136
  %11 = getelementptr inbounds nuw %struct._zend_persistent_script, ptr %10, i32 0, i32 4
  store i8 1, ptr %11, align 8, !tbaa !165
  %12 = load ptr, ptr %2, align 8, !tbaa !136
  %13 = getelementptr inbounds nuw %struct._zend_persistent_script, ptr %12, i32 0, i32 3
  store i64 0, ptr %13, align 8, !tbaa !137
  %14 = load ptr, ptr %2, align 8, !tbaa !136
  %15 = getelementptr inbounds nuw %struct._zend_persistent_script, ptr %14, i32 0, i32 13
  %16 = getelementptr inbounds nuw %struct.zend_persistent_script_dynamic_members, ptr %15, i32 0, i32 2
  %17 = load i32, ptr %16, align 8, !tbaa !252
  %18 = zext i32 %17 to i64
  %19 = load ptr, ptr @smm_shared_globals, align 8, !tbaa !8
  %20 = getelementptr inbounds nuw %struct._zend_smm_shared_globals, ptr %19, i32 0, i32 3
  %21 = load i64, ptr %20, align 8, !tbaa !11
  %22 = add i64 %21, %18
  store i64 %22, ptr %20, align 8, !tbaa !11
  %23 = load ptr, ptr @smm_shared_globals, align 8, !tbaa !8
  %24 = getelementptr inbounds nuw %struct._zend_smm_shared_globals, ptr %23, i32 0, i32 4
  %25 = load i8, ptr %24, align 8, !tbaa !182, !range !38, !noundef !39
  %26 = trunc i8 %25 to i1
  br i1 %26, label %27, label %33

27:                                               ; preds = %9
  call void @llvm.lifetime.start.p0(i64 4, ptr %3) #19
  %28 = load ptr, ptr @accel_shared_globals, align 8, !tbaa !29
  %29 = getelementptr inbounds nuw %struct._zend_accel_shared_globals, ptr %28, i32 0, i32 6
  %30 = call zeroext i1 @zend_accel_hash_is_full(ptr noundef %29)
  %31 = select i1 %30, i32 1, i32 0
  store i32 %31, ptr %3, align 4, !tbaa !4
  %32 = load i32, ptr %3, align 4, !tbaa !4
  call void @zend_accel_schedule_restart_if_necessary(i32 noundef %32)
  call void @llvm.lifetime.end.p0(i64 4, ptr %3) #19
  br label %33

33:                                               ; preds = %8, %27, %9
  ret void
}

; Function Attrs: nounwind uwtable
define internal void @zend_accel_lock_discard_script(ptr noundef %0) #0 {
  %2 = alloca ptr, align 8
  store ptr %0, ptr %2, align 8, !tbaa !136
  call void @zend_shared_alloc_lock()
  %3 = load ptr, ptr %2, align 8, !tbaa !136
  call void @zend_accel_discard_script(ptr noundef %3)
  call void @zend_shared_alloc_unlock()
  ret void
}