; Function Attrs: nounwind uwtable
define internal fastcc void @zend_accel_lock_discard_script(ptr noundef nonnull captures(none) %0) unnamed_addr #0 {
  tail call void @zend_shared_alloc_lock() #26
  %2 = getelementptr inbounds nuw i8, ptr %0, i64 400
  %3 = load i8, ptr %2, align 8, !tbaa !155, !range !37, !noundef !38
  %4 = trunc nuw i8 %3 to i1
  br i1 %4, label %zend_accel_discard_script.exit, label %5

5:                                                ; preds = %1
  store i8 1, ptr %2, align 8, !tbaa !155
  %6 = getelementptr inbounds nuw i8, ptr %0, i64 392
  store i64 0, ptr %6, align 8, !tbaa !124
  %7 = getelementptr inbounds nuw i8, ptr %0, i64 464
  %8 = load i32, ptr %7, align 8, !tbaa !157
  %9 = zext i32 %8 to i64
  %10 = load ptr, ptr @smm_shared_globals, align 8, !tbaa !4
  %11 = getelementptr inbounds nuw i8, ptr %10, i64 24
  %12 = load i64, ptr %11, align 8, !tbaa !9
  %13 = add i64 %12, %9
  store i64 %13, ptr %11, align 8, !tbaa !9
  %14 = getelementptr inbounds nuw i8, ptr %10, i64 32
  %15 = load i8, ptr %14, align 8, !tbaa !158, !range !37, !noundef !38
  %16 = trunc nuw i8 %15 to i1
  br i1 %16, label %17, label %zend_accel_discard_script.exit

17:                                               ; preds = %5
  %18 = uitofp i64 %13 to double
  %19 = load i64, ptr getelementptr inbounds nuw (i8, ptr @accel_globals, i64 8), align 8, !tbaa !17
  %20 = sitofp i64 %19 to double
  %21 = fdiv double %18, %20
  %22 = load double, ptr getelementptr inbounds nuw (i8, ptr @accel_globals, i64 24), align 8, !tbaa !27
  %23 = fcmp ult double %21, %22
  br i1 %23, label %zend_accel_discard_script.exit, label %24

24:                                               ; preds = %17
  %25 = load ptr, ptr @accel_shared_globals, align 8, !tbaa !28
  %26 = getelementptr i8, ptr %25, i64 64
  %.val.i = load i32, ptr %26, align 8, !tbaa !159
  %27 = getelementptr i8, ptr %25, i64 68
  %.val4.i = load i32, ptr %27, align 4, !tbaa !160
  %28 = icmp eq i32 %.val.i, %.val4.i
  %29 = zext i1 %28 to i32
  tail call void @zend_accel_schedule_restart(i32 noundef %29)
  br label %zend_accel_discard_script.exit

zend_accel_discard_script.exit:                   ; preds = %1, %5, %17, %24
  tail call void @zend_shared_alloc_unlock() #26
  ret void
}